; Function Attrs: mustprogress nofree norecurse nosync nounwind willreturn memory(argmem: readwrite) uwtable
define void @_ZN6icu_7510DateFormat10setContextE15UDisplayContextR10UErrorCode(ptr nocapture noundef nonnull writeonly align 8 dereferenceable(352) %this, i32 noundef %value, ptr nocapture noundef nonnull align 4 dereferenceable(4) %status) unnamed_addr #7 align 2 {
entry:
  %0 = load i32, ptr %status, align 4
  %cmp.i = icmp slt i32 %0, 1
  br i1 %cmp.i, label %if.end, label %if.end3

if.end:                                           ; preds = %entry
  %shr.mask = and i32 %value, -256
  %cmp = icmp eq i32 %shr.mask, 256
  br i1 %cmp, label %if.then2, label %if.else

if.then2:                                         ; preds = %if.end
  %fCapitalizationContext = getelementptr inbounds i8, ptr %this, i64 348
  store i32 %value, ptr %fCapitalizationContext, align 4
  br label %if.end3

if.else:                                          ; preds = %if.end
  store i32 1, ptr %status, align 4
  br label %if.end3

if.end3:                                          ; preds = %entry, %if.else, %if.then2
  ret void
}